; Function Attrs: nounwind uwtable
define nonnull ptr @l_Lean_Meta_hasSmartUnfoldingDecl___boxed(ptr noundef %0, ptr noundef %1) local_unnamed_addr #1 {
  %3 = load ptr, ptr @l_Lean_Meta_smartUnfoldingSuffix, align 8, !tbaa !12
  %4 = tail call ptr @l_Lean_Name_str___override(ptr noundef %1, ptr noundef %3) #5
  %5 = tail call zeroext i8 @l_Lean_Environment_contains(ptr noundef %0, ptr noundef %4, i8 noundef zeroext 1) #5
  %6 = zext i8 %5 to i64
  %7 = shl nuw nsw i64 %6, 1
  %8 = or disjoint i64 %7, 1
  %9 = inttoptr i64 %8 to ptr
  ret ptr %9
}